target datalayout = "e-m:e-p270:32:32-p271:32:32-p272:64:64-i64:64-i128:128-f80:128-n8:16:32:64-S128"
target triple = "x86_64-pc-linux-gnu"

%struct.JsonbInState = type { ptr, ptr, i8, ptr }
%struct.JsonbValue = type { i32, %union.anon }
%union.anon = type { %struct.anon.2 }
%struct.anon.2 = type { i32, ptr, i8 }
%struct.JsonbParseState = type { %struct.JsonbValue, i64, ptr, i8, i8 }

@.str.1 = private unnamed_addr constant [8 x i8] c"jsonb.c\00", align 1
@.str.17 = private unnamed_addr constant [48 x i8] c"argument list must have even number of elements\00", align 1
@.str.18 = private unnamed_addr constant [65 x i8] c"The arguments of %s must consist of alternating keys and values.\00", align 1
@.str.19 = private unnamed_addr constant [21 x i8] c"jsonb_build_object()\00", align 1
@__func__.jsonb_build_object_worker = private unnamed_addr constant [26 x i8] c"jsonb_build_object_worker\00", align 1
@.str.20 = private unnamed_addr constant [34 x i8] c"argument %d: key must not be null\00", align 1

; Function Attrs: inlinehint nounwind uwtable
define internal i64 @PointerGetDatum(ptr noundef %0) #2 {
  %2 = alloca ptr, align 8
  store ptr %0, ptr %2, align 8
  %3 = load ptr, ptr %2, align 8
  %4 = ptrtoint ptr %3 to i64
  ret i64 %4
}

; Function Attrs: inlinehint nounwind uwtable
define internal i64 @JsonbPGetDatum(ptr noundef %0) #2 {
  %2 = alloca ptr, align 8
  store ptr %0, ptr %2, align 8
  %3 = load ptr, ptr %2, align 8
  %4 = call i64 @PointerGetDatum(ptr noundef %3)
  ret i64 %4
}

; Function Attrs: nounwind uwtable
define dso_local i64 @jsonb_build_object_worker(i32 noundef %0, ptr noundef %1, ptr noundef %2, ptr noundef %3, i1 noundef zeroext %4, i1 noundef zeroext %5) #0 {
  %7 = alloca i32, align 4
  %8 = alloca ptr, align 8
  %9 = alloca ptr, align 8
  %10 = alloca ptr, align 8
  %11 = alloca i8, align 1
  %12 = alloca i8, align 1
  %13 = alloca i32, align 4
  %14 = alloca %struct.JsonbInState, align 8
  %15 = alloca i8, align 1
  %16 = alloca i32, align 4
  store i32 %0, ptr %7, align 4
  store ptr %1, ptr %8, align 8
  store ptr %2, ptr %9, align 8
  store ptr %3, ptr %10, align 8
  %17 = zext i1 %4 to i8
  store i8 %17, ptr %11, align 1
  %18 = zext i1 %5 to i8
  store i8 %18, ptr %12, align 1
  call void @llvm.lifetime.start.p0(i64 4, ptr %13) #8
  call void @llvm.lifetime.start.p0(i64 32, ptr %14) #8
  %19 = load i32, ptr %7, align 4
  %20 = srem i32 %19, 2
  %21 = icmp ne i32 %20, 0
  br i1 %21, label %22, label %35

22:                                               ; preds = %6
  br label %23

23:                                               ; preds = %22
  br i1 true, label %24, label %26

24:                                               ; preds = %23
  %25 = call zeroext i1 @errstart_cold(i32 noundef 21, ptr noundef null) #10
  br i1 %25, label %28, label %32

26:                                               ; preds = %23
  %27 = call zeroext i1 @errstart(i32 noundef 21, ptr noundef null)
  br i1 %27, label %28, label %32

28:                                               ; preds = %26, %24
  %29 = call i32 @errcode(i32 noundef 50856066)
  %30 = call i32 (ptr, ...) @errmsg(ptr noundef @.str.17)
  %31 = call i32 (ptr, ...) @errhint(ptr noundef @.str.18, ptr noundef @.str.19)
  call void @errfinish(ptr noundef @.str.1, i32 noundef 1137, ptr noundef @__func__.jsonb_build_object_worker)
  br label %32

32:                                               ; preds = %28, %26, %24
  unreachable

33:                                               ; No predecessors!
  br label %34

34:                                               ; preds = %33
  br label %35

35:                                               ; preds = %34, %6
  call void @llvm.memset.p0.i64(ptr align 8 %14, i8 0, i64 32, i1 false)
  %36 = getelementptr inbounds nuw %struct.JsonbInState, ptr %14, i32 0, i32 0
  %37 = call ptr @pushJsonbValue(ptr noundef %36, i32 noundef 6, ptr noundef null)
  %38 = getelementptr inbounds nuw %struct.JsonbInState, ptr %14, i32 0, i32 1
  store ptr %37, ptr %38, align 8
  %39 = load i8, ptr %12, align 1, !range !4, !noundef !5
  %40 = trunc i8 %39 to i1
  %41 = getelementptr inbounds nuw %struct.JsonbInState, ptr %14, i32 0, i32 0
  %42 = load ptr, ptr %41, align 8
  %43 = getelementptr inbounds nuw %struct.JsonbParseState, ptr %42, i32 0, i32 3
  %44 = zext i1 %40 to i8
  store i8 %44, ptr %43, align 8
  %45 = load i8, ptr %11, align 1, !range !4, !noundef !5
  %46 = trunc i8 %45 to i1
  %47 = getelementptr inbounds nuw %struct.JsonbInState, ptr %14, i32 0, i32 0
  %48 = load ptr, ptr %47, align 8
  %49 = getelementptr inbounds nuw %struct.JsonbParseState, ptr %48, i32 0, i32 4
  %50 = zext i1 %46 to i8
  store i8 %50, ptr %49, align 1
  store i32 0, ptr %13, align 4
  br label %51

51:                                               ; preds = %129, %35
  %52 = load i32, ptr %13, align 4
  %53 = load i32, ptr %7, align 4
  %54 = icmp slt i32 %52, %53
  br i1 %54, label %55, label %132

55:                                               ; preds = %51
  call void @llvm.lifetime.start.p0(i64 1, ptr %15) #8
  %56 = load ptr, ptr %9, align 8
  %57 = load i32, ptr %13, align 4
  %58 = sext i32 %57 to i64
  %59 = getelementptr inbounds i8, ptr %56, i64 %58
  %60 = load i8, ptr %59, align 1, !range !4, !noundef !5
  %61 = trunc i8 %60 to i1
  br i1 %61, label %62, label %76

62:                                               ; preds = %55
  br label %63

63:                                               ; preds = %62
  br i1 true, label %64, label %66

64:                                               ; preds = %63
  %65 = call zeroext i1 @errstart_cold(i32 noundef 21, ptr noundef null) #10
  br i1 %65, label %68, label %73

66:                                               ; preds = %63
  %67 = call zeroext i1 @errstart(i32 noundef 21, ptr noundef null)
  br i1 %67, label %68, label %73

68:                                               ; preds = %66, %64
  %69 = call i32 @errcode(i32 noundef 50856066)
  %70 = load i32, ptr %13, align 4
  %71 = add i32 %70, 1
  %72 = call i32 (ptr, ...) @errmsg(ptr noundef @.str.20, i32 noundef %71)
  call void @errfinish(ptr noundef @.str.1, i32 noundef 1153, ptr noundef @__func__.jsonb_build_object_worker)
  br label %73

73:                                               ; preds = %68, %66, %64
  unreachable

74:                                               ; No predecessors!
  br label %75

75:                                               ; preds = %74
  br label %76

76:                                               ; preds = %75, %55
  %77 = load i8, ptr %11, align 1, !range !4, !noundef !5
  %78 = trunc i8 %77 to i1
  br i1 %78, label %79, label %87

79:                                               ; preds = %76
  %80 = load ptr, ptr %9, align 8
  %81 = load i32, ptr %13, align 4
  %82 = add i32 %81, 1
  %83 = sext i32 %82 to i64
  %84 = getelementptr inbounds i8, ptr %80, i64 %83
  %85 = load i8, ptr %84, align 1, !range !4, !noundef !5
  %86 = trunc i8 %85 to i1
  br label %87

87:                                               ; preds = %79, %76
  %88 = phi i1 [ false, %76 ], [ %86, %79 ]
  %89 = zext i1 %88 to i8
  store i8 %89, ptr %15, align 1
  %90 = load i8, ptr %15, align 1, !range !4, !noundef !5
  %91 = trunc i8 %90 to i1
  br i1 %91, label %92, label %96

92:                                               ; preds = %87
  %93 = load i8, ptr %12, align 1, !range !4, !noundef !5
  %94 = trunc i8 %93 to i1
  br i1 %94, label %96, label %95

95:                                               ; preds = %92
  store i32 6, ptr %16, align 4
  br label %126

96:                                               ; preds = %92, %87
  %97 = load ptr, ptr %8, align 8
  %98 = load i32, ptr %13, align 4
  %99 = sext i32 %98 to i64
  %100 = getelementptr inbounds i64, ptr %97, i64 %99
  %101 = load i64, ptr %100, align 8
  %102 = load ptr, ptr %10, align 8
  %103 = load i32, ptr %13, align 4
  %104 = sext i32 %103 to i64
  %105 = getelementptr inbounds i32, ptr %102, i64 %104
  %106 = load i32, ptr %105, align 4
  call void @add_jsonb(i64 noundef %101, i1 noundef zeroext false, ptr noundef %14, i32 noundef %106, i1 noundef zeroext true)
  %107 = load ptr, ptr %8, align 8
  %108 = load i32, ptr %13, align 4
  %109 = add i32 %108, 1
  %110 = sext i32 %109 to i64
  %111 = getelementptr inbounds i64, ptr %107, i64 %110
  %112 = load i64, ptr %111, align 8
  %113 = load ptr, ptr %9, align 8
  %114 = load i32, ptr %13, align 4
  %115 = add i32 %114, 1
  %116 = sext i32 %115 to i64
  %117 = getelementptr inbounds i8, ptr %113, i64 %116
  %118 = load i8, ptr %117, align 1, !range !4, !noundef !5
  %119 = trunc i8 %118 to i1
  %120 = load ptr, ptr %10, align 8
  %121 = load i32, ptr %13, align 4
  %122 = add i32 %121, 1
  %123 = sext i32 %122 to i64
  %124 = getelementptr inbounds i32, ptr %120, i64 %123
  %125 = load i32, ptr %124, align 4
  call void @add_jsonb(i64 noundef %112, i1 noundef zeroext %119, ptr noundef %14, i32 noundef %125, i1 noundef zeroext false)
  store i32 0, ptr %16, align 4
  br label %126

126:                                              ; preds = %96, %95
  call void @llvm.lifetime.end.p0(i64 1, ptr %15) #8
  %127 = load i32, ptr %16, align 4
  switch i32 %127, label %140 [
    i32 0, label %128
    i32 6, label %129
  ]

128:                                              ; preds = %126
  br label %129

129:                                              ; preds = %128, %126
  %130 = load i32, ptr %13, align 4
  %131 = add i32 %130, 2
  store i32 %131, ptr %13, align 4
  br label %51, !llvm.loop !9

132:                                              ; preds = %51
  %133 = getelementptr inbounds nuw %struct.JsonbInState, ptr %14, i32 0, i32 0
  %134 = call ptr @pushJsonbValue(ptr noundef %133, i32 noundef 7, ptr noundef null)
  %135 = getelementptr inbounds nuw %struct.JsonbInState, ptr %14, i32 0, i32 1
  store ptr %134, ptr %135, align 8
  %136 = getelementptr inbounds nuw %struct.JsonbInState, ptr %14, i32 0, i32 1
  %137 = load ptr, ptr %136, align 8
  %138 = call ptr @JsonbValueToJsonb(ptr noundef %137)
  %139 = call i64 @JsonbPGetDatum(ptr noundef %138)
  store i32 1, ptr %16, align 4
  call void @llvm.lifetime.end.p0(i64 32, ptr %14) #8
  call void @llvm.lifetime.end.p0(i64 4, ptr %13) #8
  ret i64 %139

140:                                              ; preds = %126
  unreachable
}