; Function Attrs: nounwind uwtable
define dso_local i64 @jsonb_build_object_worker(i32 noundef %0, ptr noundef readonly captures(none) %1, ptr noundef readonly captures(none) %2, ptr noundef readonly captures(none) %3, i1 noundef zeroext %4, i1 noundef zeroext %5) local_unnamed_addr #0 {
  %7 = alloca i32, align 4
  %8 = alloca i32, align 4
  %9 = alloca %struct.JsonbInState, align 8
  call void @llvm.lifetime.start.p0(i64 32, ptr nonnull %9) #11
  %10 = and i32 %0, 1
  %.not = icmp eq i32 %10, 0
  br i1 %.not, label %16, label %11

11:                                               ; preds = %6
  %12 = tail call zeroext i1 @errstart_cold(i32 noundef 21, ptr noundef null) #12
  tail call void @llvm.assume(i1 %12)
  %13 = tail call i32 @errcode(i32 noundef 50856066) #11
  %14 = tail call i32 (ptr, ...) @errmsg(ptr noundef nonnull @.str.17) #11
  %15 = tail call i32 (ptr, ...) @errhint(ptr noundef nonnull @.str.18, ptr noundef nonnull @.str.19) #11
  tail call void @errfinish(ptr noundef nonnull @.str.1, i32 noundef 1137, ptr noundef nonnull @__func__.jsonb_build_object_worker) #11
  unreachable

16:                                               ; preds = %6
  %17 = zext i1 %5 to i8
  %18 = zext i1 %4 to i8
  call void @llvm.memset.p0.i64(ptr noundef nonnull align 8 dereferenceable(32) %9, i8 0, i64 32, i1 false)
  %19 = call ptr @pushJsonbValue(ptr noundef nonnull %9, i32 noundef 6, ptr noundef null) #11
  %20 = getelementptr inbounds nuw i8, ptr %9, i64 8
  store ptr %19, ptr %20, align 8
  %21 = load ptr, ptr %9, align 8
  %22 = getelementptr inbounds nuw i8, ptr %21, i64 48
  store i8 %17, ptr %22, align 8
  %23 = getelementptr inbounds nuw i8, ptr %21, i64 49
  store i8 %18, ptr %23, align 1
  %24 = icmp sgt i32 %0, 0
  br i1 %24, label %.lr.ph, label %._crit_edge

.lr.ph:                                           ; preds = %16
  br i1 %4, label %.lr.ph.split.us, label %.lr.ph.split

.lr.ph.split.us:                                  ; preds = %.lr.ph
  br i1 %5, label %.lr.ph.split.us.split.us, label %.lr.ph.split.us.split

.lr.ph.split.us.split.us:                         ; preds = %.lr.ph.split.us, %add_jsonb.exit.us.us
  %.026.us.us = phi i32 [ %43, %add_jsonb.exit.us.us ], [ 0, %.lr.ph.split.us ]
  %25 = sext i32 %.026.us.us to i64
  %26 = getelementptr inbounds i8, ptr %2, i64 %25
  %27 = load i8, ptr %26, align 1, !range !7, !noundef !8
  %28 = trunc nuw i8 %27 to i1
  br i1 %28, label %.split.us, label %.critedge.us.us

.critedge.us.us:                                  ; preds = %.lr.ph.split.us.split.us
  %29 = getelementptr inbounds i64, ptr %1, i64 %25
  %30 = load i64, ptr %29, align 8
  %31 = getelementptr inbounds i32, ptr %3, i64 %25
  %32 = load i32, ptr %31, align 4
  call void @llvm.lifetime.start.p0(i64 4, ptr nonnull %7) #11
  call void @llvm.lifetime.start.p0(i64 4, ptr nonnull %8) #11
  %33 = icmp eq i32 %32, 0
  br i1 %33, label %.split28.us, label %add_jsonb.exit.us.us

add_jsonb.exit.us.us:                             ; preds = %.critedge.us.us
  call void @json_categorize_type(i32 noundef %32, i1 noundef zeroext true, ptr noundef nonnull %7, ptr noundef nonnull %8) #11
  %.pre.i.us.us = load i32, ptr %7, align 4
  %.pre6.i.us.us = load i32, ptr %8, align 4
  call fastcc void @datum_to_jsonb_internal(i64 noundef %30, i1 noundef zeroext false, ptr noundef nonnull %9, i32 noundef %.pre.i.us.us, i32 noundef %.pre6.i.us.us, i1 noundef zeroext true)
  call void @llvm.lifetime.end.p0(i64 4, ptr nonnull %8) #11
  call void @llvm.lifetime.end.p0(i64 4, ptr nonnull %7) #11
  %34 = or disjoint i32 %.026.us.us, 1
  %35 = sext i32 %34 to i64
  %36 = getelementptr inbounds i64, ptr %1, i64 %35
  %37 = load i64, ptr %36, align 8
  %38 = getelementptr inbounds i8, ptr %2, i64 %35
  %39 = load i8, ptr %38, align 1, !range !7, !noundef !8
  %40 = trunc nuw i8 %39 to i1
  %41 = getelementptr inbounds i32, ptr %3, i64 %35
  %42 = load i32, ptr %41, align 4
  call fastcc void @add_jsonb(i64 noundef %37, i1 noundef zeroext %40, ptr noundef %9, i32 noundef %42, i1 noundef zeroext false)
  %43 = add i32 %.026.us.us, 2
  %44 = icmp slt i32 %43, %0
  br i1 %44, label %.lr.ph.split.us.split.us, label %._crit_edge, !llvm.loop !13

.lr.ph.split.us.split:                            ; preds = %.lr.ph.split.us, %66
  %.026.us = phi i32 [ %67, %66 ], [ 0, %.lr.ph.split.us ]
  %45 = sext i32 %.026.us to i64
  %46 = getelementptr inbounds i8, ptr %2, i64 %45
  %47 = load i8, ptr %46, align 1, !range !7, !noundef !8
  %48 = trunc nuw i8 %47 to i1
  br i1 %48, label %.split.us, label %49

49:                                               ; preds = %.lr.ph.split.us.split
  %50 = or disjoint i32 %.026.us, 1
  %51 = sext i32 %50 to i64
  %52 = getelementptr inbounds i8, ptr %2, i64 %51
  %53 = load i8, ptr %52, align 1, !range !7, !noundef !8
  %54 = trunc nuw i8 %53 to i1
  br i1 %54, label %66, label %.critedge.us

.critedge.us:                                     ; preds = %49
  %55 = getelementptr inbounds i64, ptr %1, i64 %45
  %56 = load i64, ptr %55, align 8
  %57 = getelementptr inbounds i32, ptr %3, i64 %45
  %58 = load i32, ptr %57, align 4
  call void @llvm.lifetime.start.p0(i64 4, ptr nonnull %7) #11
  call void @llvm.lifetime.start.p0(i64 4, ptr nonnull %8) #11
  %59 = icmp eq i32 %58, 0
  br i1 %59, label %.split28.us, label %add_jsonb.exit.us

add_jsonb.exit.us:                                ; preds = %.critedge.us
  call void @json_categorize_type(i32 noundef %58, i1 noundef zeroext true, ptr noundef nonnull %7, ptr noundef nonnull %8) #11
  %.pre.i.us = load i32, ptr %7, align 4
  %.pre6.i.us = load i32, ptr %8, align 4
  call fastcc void @datum_to_jsonb_internal(i64 noundef %56, i1 noundef zeroext false, ptr noundef nonnull %9, i32 noundef %.pre.i.us, i32 noundef %.pre6.i.us, i1 noundef zeroext true)
  call void @llvm.lifetime.end.p0(i64 4, ptr nonnull %8) #11
  call void @llvm.lifetime.end.p0(i64 4, ptr nonnull %7) #11
  %60 = getelementptr inbounds i64, ptr %1, i64 %51
  %61 = load i64, ptr %60, align 8
  %62 = load i8, ptr %52, align 1, !range !7, !noundef !8
  %63 = trunc nuw i8 %62 to i1
  %64 = getelementptr inbounds i32, ptr %3, i64 %51
  %65 = load i32, ptr %64, align 4
  call fastcc void @add_jsonb(i64 noundef %61, i1 noundef zeroext %63, ptr noundef %9, i32 noundef %65, i1 noundef zeroext false)
  br label %66

66:                                               ; preds = %add_jsonb.exit.us, %49
  %67 = add i32 %.026.us, 2
  %68 = icmp slt i32 %67, %0
  br i1 %68, label %.lr.ph.split.us.split, label %._crit_edge, !llvm.loop !13

.lr.ph.split:                                     ; preds = %.lr.ph, %add_jsonb.exit
  %.026 = phi i32 [ %94, %add_jsonb.exit ], [ 0, %.lr.ph ]
  %69 = sext i32 %.026 to i64
  %70 = getelementptr inbounds i8, ptr %2, i64 %69
  %71 = load i8, ptr %70, align 1, !range !7, !noundef !8
  %72 = trunc nuw i8 %71 to i1
  br i1 %72, label %.split.us, label %.critedge

.split.us:                                        ; preds = %.lr.ph.split, %.lr.ph.split.us.split, %.lr.ph.split.us.split.us
  %.us-phi = phi i32 [ %.026.us.us, %.lr.ph.split.us.split.us ], [ %.026.us, %.lr.ph.split.us.split ], [ %.026, %.lr.ph.split ]
  %73 = call zeroext i1 @errstart_cold(i32 noundef 21, ptr noundef null) #12
  call void @llvm.assume(i1 %73)
  %74 = call i32 @errcode(i32 noundef 50856066) #11
  %75 = or disjoint i32 %.us-phi, 1
  %76 = call i32 (ptr, ...) @errmsg(ptr noundef nonnull @.str.20, i32 noundef %75) #11
  call void @errfinish(ptr noundef nonnull @.str.1, i32 noundef 1153, ptr noundef nonnull @__func__.jsonb_build_object_worker) #11
  unreachable

.critedge:                                        ; preds = %.lr.ph.split
  %77 = getelementptr inbounds i64, ptr %1, i64 %69
  %78 = load i64, ptr %77, align 8
  %79 = getelementptr inbounds i32, ptr %3, i64 %69
  %80 = load i32, ptr %79, align 4
  call void @llvm.lifetime.start.p0(i64 4, ptr nonnull %7) #11
  call void @llvm.lifetime.start.p0(i64 4, ptr nonnull %8) #11
  %81 = icmp eq i32 %80, 0
  br i1 %81, label %.split28.us, label %add_jsonb.exit

.split28.us:                                      ; preds = %.critedge, %.critedge.us, %.critedge.us.us
  %82 = call zeroext i1 @errstart_cold(i32 noundef 21, ptr noundef null) #12
  call void @llvm.assume(i1 %82)
  %83 = call i32 @errcode(i32 noundef 50856066) #11
  %84 = call i32 (ptr, ...) @errmsg(ptr noundef nonnull @.str.16) #11
  call void @errfinish(ptr noundef nonnull @.str.1, i32 noundef 1025, ptr noundef nonnull @__func__.add_jsonb) #11
  unreachable

add_jsonb.exit:                                   ; preds = %.critedge
  call void @json_categorize_type(i32 noundef %80, i1 noundef zeroext true, ptr noundef nonnull %7, ptr noundef nonnull %8) #11
  %.pre.i = load i32, ptr %7, align 4
  %.pre6.i = load i32, ptr %8, align 4
  call fastcc void @datum_to_jsonb_internal(i64 noundef %78, i1 noundef zeroext false, ptr noundef nonnull %9, i32 noundef %.pre.i, i32 noundef %.pre6.i, i1 noundef zeroext true)
  call void @llvm.lifetime.end.p0(i64 4, ptr nonnull %8) #11
  call void @llvm.lifetime.end.p0(i64 4, ptr nonnull %7) #11
  %85 = or disjoint i32 %.026, 1
  %86 = sext i32 %85 to i64
  %87 = getelementptr inbounds i64, ptr %1, i64 %86
  %88 = load i64, ptr %87, align 8
  %89 = getelementptr inbounds i8, ptr %2, i64 %86
  %90 = load i8, ptr %89, align 1, !range !7, !noundef !8
  %91 = trunc nuw i8 %90 to i1
  %92 = getelementptr inbounds i32, ptr %3, i64 %86
  %93 = load i32, ptr %92, align 4
  call fastcc void @add_jsonb(i64 noundef %88, i1 noundef zeroext %91, ptr noundef %9, i32 noundef %93, i1 noundef zeroext false)
  %94 = add i32 %.026, 2
  %95 = icmp slt i32 %94, %0
  br i1 %95, label %.lr.ph.split, label %._crit_edge, !llvm.loop !13

._crit_edge:                                      ; preds = %add_jsonb.exit, %66, %add_jsonb.exit.us.us, %16
  %96 = call ptr @pushJsonbValue(ptr noundef nonnull %9, i32 noundef 7, ptr noundef null) #11
  store ptr %96, ptr %20, align 8
  %97 = call ptr @JsonbValueToJsonb(ptr noundef %96) #11
  %98 = ptrtoint ptr %97 to i64
  call void @llvm.lifetime.end.p0(i64 32, ptr nonnull %9) #11
  ret i64 %98
}